; Function Attrs: nounwind uwtable
define hidden i32 @exr_attr_opaquedata_create(ptr noundef %0, ptr noundef %1, i64 noundef %2, ptr noundef readonly %3) local_unnamed_addr #0 {
  %.not.i = icmp eq ptr %0, null
  br i1 %.not.i, label %exr_attr_opaquedata_init.exit.thread, label %5

5:                                                ; preds = %4
  %.not23.i = icmp eq ptr %1, null
  br i1 %.not23.i, label %6, label %10

6:                                                ; preds = %5
  %7 = getelementptr inbounds nuw i8, ptr %0, i64 64
  %8 = load ptr, ptr %7, align 8, !tbaa !3
  %9 = tail call i32 %8(ptr noundef nonnull %0, i32 noundef 3, ptr noundef nonnull @.str) #4
  br label %exr_attr_opaquedata_init.exit

10:                                               ; preds = %5
  %11 = icmp ugt i64 %2, 2147483647
  br i1 %11, label %12, label %16

12:                                               ; preds = %10
  %13 = getelementptr inbounds nuw i8, ptr %0, i64 72
  %14 = load ptr, ptr %13, align 8, !tbaa !22
  %15 = tail call i32 (ptr, i32, ptr, ...) %14(ptr noundef nonnull %0, i32 noundef 3, ptr noundef nonnull @.str.1, i64 noundef %2) #4
  br label %exr_attr_opaquedata_init.exit

16:                                               ; preds = %10
  tail call void @llvm.memset.p0.i64(ptr noundef nonnull align 8 dereferenceable(56) %1, i8 0, i64 56, i1 false)
  %.not24.i = icmp eq i64 %2, 0
  br i1 %.not24.i, label %26, label %17

17:                                               ; preds = %16
  %18 = getelementptr inbounds nuw i8, ptr %0, i64 88
  %19 = load ptr, ptr %18, align 8, !tbaa !23
  %20 = tail call ptr %19(i64 noundef %2) #4
  %21 = getelementptr inbounds nuw i8, ptr %1, i64 16
  store ptr %20, ptr %21, align 8, !tbaa !24
  %.not25.i = icmp eq ptr %20, null
  br i1 %.not25.i, label %22, label %26

22:                                               ; preds = %17
  %23 = getelementptr inbounds nuw i8, ptr %0, i64 56
  %24 = load ptr, ptr %23, align 8, !tbaa !26
  %25 = tail call i32 %24(ptr noundef nonnull %0, i32 noundef 1) #4
  br label %exr_attr_opaquedata_init.exit

26:                                               ; preds = %17, %16
  %27 = trunc nuw nsw i64 %2 to i32
  store i32 %27, ptr %1, align 8, !tbaa !27
  %28 = getelementptr inbounds nuw i8, ptr %1, i64 8
  store i32 %27, ptr %28, align 8, !tbaa !28
  br label %exr_attr_opaquedata_init.exit

exr_attr_opaquedata_init.exit:                    ; preds = %6, %12, %22, %26
  %.0.i = phi i32 [ %15, %12 ], [ 0, %26 ], [ %25, %22 ], [ %9, %6 ]
  %29 = icmp eq i32 %.0.i, 0
  %30 = icmp ne ptr %3, null
  %or.cond = and i1 %30, %29
  br i1 %or.cond, label %31, label %exr_attr_opaquedata_init.exit.thread

31:                                               ; preds = %exr_attr_opaquedata_init.exit
  %32 = getelementptr inbounds nuw i8, ptr %1, i64 16
  %33 = load ptr, ptr %32, align 8, !tbaa !24
  %.not = icmp eq ptr %33, null
  br i1 %.not, label %exr_attr_opaquedata_init.exit.thread, label %34

34:                                               ; preds = %31
  tail call void @llvm.memcpy.p0.p0.i64(ptr nonnull align 1 %33, ptr nonnull align 1 %3, i64 %2, i1 false)
  br label %exr_attr_opaquedata_init.exit.thread

exr_attr_opaquedata_init.exit.thread:             ; preds = %4, %31, %34, %exr_attr_opaquedata_init.exit
  %.0.i13 = phi i32 [ 0, %31 ], [ 0, %34 ], [ %.0.i, %exr_attr_opaquedata_init.exit ], [ 2, %4 ]
  ret i32 %.0.i13
}